target datalayout = "e-m:e-p270:32:32-p271:32:32-p272:64:64-i64:64-i128:128-f80:128-n8:16:32:64-S128"
target triple = "x86_64-pc-linux-gnu"

%struct.ssl_st = type { i32, i16, i16, ptr, ptr, ptr, ptr, ptr, i32, i32, ptr, ptr, i32, i32, ptr, ptr, ptr, ptr, ptr, ptr, ptr, ptr, i32, i32, [32 x i8], ptr, ptr, ptr, ptr, ptr, ptr, ptr, i64, %struct.crypto_ex_data_st, ptr, i32, i32, i32, i32, i16, ptr, i32, i64, ptr, ptr, ptr, ptr, ptr, ptr, i32, i32, ptr, ptr, i8, i8, i32 }
%struct.crypto_ex_data_st = type { ptr }
%struct.buf_mem_st = type { i64, ptr, i64 }
%struct.ssl3_state_st = type { [8 x i8], [8 x i8], [32 x i8], [32 x i8], i8, i8, %struct.ssl3_buffer_st, %struct.ssl3_buffer_st, %struct.ssl3_record_st, i8, i32, i32, i32, i32, ptr, ptr, %struct.env_md_ctx_st, %struct.env_md_ctx_st, i8, i32, [2 x i8], i32, i8, i8, ptr, ptr, ptr, %struct.anon, [64 x i8], i8, [64 x i8], i8, i32, i32, ptr, i64, ptr, i64, i8, [64 x i8] }
%struct.ssl3_buffer_st = type { ptr, i16, i16, i16 }
%struct.ssl3_record_st = type { i8, i16, ptr }
%struct.env_md_ctx_st = type { ptr, ptr, ptr, ptr }
%struct.anon = type { [64 x i8], i32, [64 x i8], i32, i64, i32, ptr, i32, i32, %union.anon, %union.anon.0, i8, i32, ptr, ptr, i64, ptr, i8, i8, i8, i8, i32, i8, ptr, i64, i8, ptr, i8, i8, i8, %struct.ssl_ecdh_ctx_st, ptr, i16 }
%union.anon = type { i32 }
%union.anon.0 = type { i16 }
%struct.ssl_ecdh_ctx_st = type { ptr, ptr }
%struct.ssl3_enc_method = type { ptr, ptr, ptr }

@.str = private unnamed_addr constant [117 x i8] c"generated/home/dtcxzyw/WorkSpace/Projects/compilers/llvm-opt-benchmark/bench/libquic/libquic/boringssl/ssl/s3_both.c\00", align 1

; Function Attrs: nounwind uwtable
define hidden i32 @ssl3_cert_verify_hash(ptr noundef %0, ptr noundef %1, ptr noundef %2, ptr noundef %3, i32 noundef %4) #0 {
  %6 = alloca i32, align 4
  %7 = alloca ptr, align 8
  %8 = alloca ptr, align 8
  %9 = alloca ptr, align 8
  %10 = alloca ptr, align 8
  %11 = alloca i32, align 4
  %12 = alloca %struct.env_md_ctx_st, align 8
  %13 = alloca i32, align 4
  %14 = alloca i32, align 4
  store ptr %0, ptr %7, align 8, !tbaa !6
  store ptr %1, ptr %8, align 8, !tbaa !49
  store ptr %2, ptr %9, align 8, !tbaa !91
  store ptr %3, ptr %10, align 8, !tbaa !93
  store i32 %4, ptr %11, align 4, !tbaa !11
  %15 = load ptr, ptr %7, align 8, !tbaa !6
  %16 = call zeroext i16 @ssl3_protocol_version(ptr noundef %15)
  %17 = zext i16 %16 to i32
  %18 = icmp sge i32 %17, 771
  br i1 %18, label %19, label %54

19:                                               ; preds = %5
  call void @llvm.lifetime.start.p0(i64 32, ptr %12) #6
  call void @llvm.lifetime.start.p0(i64 4, ptr %13) #6
  call void @EVP_MD_CTX_init(ptr noundef %12)
  %20 = load ptr, ptr %10, align 8, !tbaa !93
  %21 = load ptr, ptr %20, align 8, !tbaa !95
  %22 = call i32 @EVP_DigestInit_ex(ptr noundef %12, ptr noundef %21, ptr noundef null)
  %23 = icmp ne i32 %22, 0
  br i1 %23, label %24, label %45

24:                                               ; preds = %19
  %25 = load ptr, ptr %7, align 8, !tbaa !6
  %26 = getelementptr inbounds nuw %struct.ssl_st, ptr %25, i32 0, i32 14
  %27 = load ptr, ptr %26, align 8, !tbaa !50
  %28 = getelementptr inbounds nuw %struct.ssl3_state_st, ptr %27, i32 0, i32 15
  %29 = load ptr, ptr %28, align 8, !tbaa !96
  %30 = getelementptr inbounds nuw %struct.buf_mem_st, ptr %29, i32 0, i32 1
  %31 = load ptr, ptr %30, align 8, !tbaa !38
  %32 = load ptr, ptr %7, align 8, !tbaa !6
  %33 = getelementptr inbounds nuw %struct.ssl_st, ptr %32, i32 0, i32 14
  %34 = load ptr, ptr %33, align 8, !tbaa !50
  %35 = getelementptr inbounds nuw %struct.ssl3_state_st, ptr %34, i32 0, i32 15
  %36 = load ptr, ptr %35, align 8, !tbaa !96
  %37 = getelementptr inbounds nuw %struct.buf_mem_st, ptr %36, i32 0, i32 0
  %38 = load i64, ptr %37, align 8, !tbaa !97
  %39 = call i32 @EVP_DigestUpdate(ptr noundef %12, ptr noundef %31, i64 noundef %38)
  %40 = icmp ne i32 %39, 0
  br i1 %40, label %41, label %45

41:                                               ; preds = %24
  %42 = load ptr, ptr %8, align 8, !tbaa !49
  %43 = call i32 @EVP_DigestFinal(ptr noundef %12, ptr noundef %42, ptr noundef %13)
  %44 = icmp ne i32 %43, 0
  br i1 %44, label %47, label %45

45:                                               ; preds = %41, %24, %19
  call void @ERR_put_error(i32 noundef 16, i32 noundef 0, i32 noundef 6, ptr noundef @.str, i32 noundef 449)
  %46 = call i32 @EVP_MD_CTX_cleanup(ptr noundef %12)
  store i32 0, ptr %6, align 4
  store i32 1, ptr %14, align 4
  br label %51

47:                                               ; preds = %41
  %48 = load i32, ptr %13, align 4, !tbaa !11
  %49 = zext i32 %48 to i64
  %50 = load ptr, ptr %9, align 8, !tbaa !91
  store i64 %49, ptr %50, align 8, !tbaa !78
  store i32 0, ptr %14, align 4
  br label %51

51:                                               ; preds = %47, %45
  call void @llvm.lifetime.end.p0(i64 4, ptr %13) #6
  call void @llvm.lifetime.end.p0(i64 32, ptr %12) #6
  %52 = load i32, ptr %14, align 4
  switch i32 %52, label %113 [
    i32 0, label %53
    i32 1, label %111
  ]

53:                                               ; preds = %51
  br label %110

54:                                               ; preds = %5
  %55 = load i32, ptr %11, align 4, !tbaa !11
  %56 = icmp eq i32 %55, 6
  br i1 %56, label %57, label %87

57:                                               ; preds = %54
  %58 = load ptr, ptr %7, align 8, !tbaa !6
  %59 = getelementptr inbounds nuw %struct.ssl_st, ptr %58, i32 0, i32 14
  %60 = load ptr, ptr %59, align 8, !tbaa !50
  %61 = getelementptr inbounds nuw %struct.ssl3_state_st, ptr %60, i32 0, i32 26
  %62 = load ptr, ptr %61, align 8, !tbaa !51
  %63 = getelementptr inbounds nuw %struct.ssl3_enc_method, ptr %62, i32 0, i32 2
  %64 = load ptr, ptr %63, align 8, !tbaa !98
  %65 = load ptr, ptr %7, align 8, !tbaa !6
  %66 = load ptr, ptr %8, align 8, !tbaa !49
  %67 = call i32 %64(ptr noundef %65, i32 noundef 4, ptr noundef %66)
  %68 = icmp eq i32 %67, 0
  br i1 %68, label %82, label %69

69:                                               ; preds = %57
  %70 = load ptr, ptr %7, align 8, !tbaa !6
  %71 = getelementptr inbounds nuw %struct.ssl_st, ptr %70, i32 0, i32 14
  %72 = load ptr, ptr %71, align 8, !tbaa !50
  %73 = getelementptr inbounds nuw %struct.ssl3_state_st, ptr %72, i32 0, i32 26
  %74 = load ptr, ptr %73, align 8, !tbaa !51
  %75 = getelementptr inbounds nuw %struct.ssl3_enc_method, ptr %74, i32 0, i32 2
  %76 = load ptr, ptr %75, align 8, !tbaa !98
  %77 = load ptr, ptr %7, align 8, !tbaa !6
  %78 = load ptr, ptr %8, align 8, !tbaa !49
  %79 = getelementptr inbounds i8, ptr %78, i64 16
  %80 = call i32 %76(ptr noundef %77, i32 noundef 64, ptr noundef %79)
  %81 = icmp eq i32 %80, 0
  br i1 %81, label %82, label %83

82:                                               ; preds = %69, %57
  store i32 0, ptr %6, align 4
  br label %111

83:                                               ; preds = %69
  %84 = load ptr, ptr %9, align 8, !tbaa !91
  store i64 36, ptr %84, align 8, !tbaa !78
  %85 = call ptr @EVP_md5_sha1()
  %86 = load ptr, ptr %10, align 8, !tbaa !93
  store ptr %85, ptr %86, align 8, !tbaa !95
  br label %109

87:                                               ; preds = %54
  %88 = load i32, ptr %11, align 4, !tbaa !11
  %89 = icmp eq i32 %88, 408
  br i1 %89, label %90, label %107

90:                                               ; preds = %87
  %91 = load ptr, ptr %7, align 8, !tbaa !6
  %92 = getelementptr inbounds nuw %struct.ssl_st, ptr %91, i32 0, i32 14
  %93 = load ptr, ptr %92, align 8, !tbaa !50
  %94 = getelementptr inbounds nuw %struct.ssl3_state_st, ptr %93, i32 0, i32 26
  %95 = load ptr, ptr %94, align 8, !tbaa !51
  %96 = getelementptr inbounds nuw %struct.ssl3_enc_method, ptr %95, i32 0, i32 2
  %97 = load ptr, ptr %96, align 8, !tbaa !98
  %98 = load ptr, ptr %7, align 8, !tbaa !6
  %99 = load ptr, ptr %8, align 8, !tbaa !49
  %100 = call i32 %97(ptr noundef %98, i32 noundef 64, ptr noundef %99)
  %101 = icmp eq i32 %100, 0
  br i1 %101, label %102, label %103

102:                                              ; preds = %90
  store i32 0, ptr %6, align 4
  br label %111

103:                                              ; preds = %90
  %104 = load ptr, ptr %9, align 8, !tbaa !91
  store i64 20, ptr %104, align 8, !tbaa !78
  %105 = call ptr @EVP_sha1()
  %106 = load ptr, ptr %10, align 8, !tbaa !93
  store ptr %105, ptr %106, align 8, !tbaa !95
  br label %108

107:                                              ; preds = %87
  call void @ERR_put_error(i32 noundef 16, i32 noundef 0, i32 noundef 68, ptr noundef @.str, i32 noundef 469)
  store i32 0, ptr %6, align 4
  br label %111

108:                                              ; preds = %103
  br label %109

109:                                              ; preds = %108, %83
  br label %110

110:                                              ; preds = %109, %53
  store i32 1, ptr %6, align 4
  br label %111

111:                                              ; preds = %110, %107, %102, %82, %51
  %112 = load i32, ptr %6, align 4
  ret i32 %112

113:                                              ; preds = %51
  unreachable
}