; Function Attrs: nounwind uwtable
define hidden range(i32 0, 2) i32 @ssl3_cert_verify_hash(ptr noundef %0, ptr noundef %1, ptr noundef writeonly captures(none) %2, ptr noundef captures(none) %3, i32 noundef %4) local_unnamed_addr #0 {
  %6 = alloca %struct.env_md_ctx_st, align 8
  %7 = alloca i32, align 4
  %8 = tail call zeroext i16 @ssl3_protocol_version(ptr noundef %0) #7
  %9 = icmp ugt i16 %8, 770
  br i1 %9, label %10, label %28

10:                                               ; preds = %5
  call void @llvm.lifetime.start.p0(i64 32, ptr nonnull %6) #7
  call void @llvm.lifetime.start.p0(i64 4, ptr nonnull %7) #7
  call void @EVP_MD_CTX_init(ptr noundef nonnull %6) #7
  %11 = load ptr, ptr %3, align 8, !tbaa !86
  %12 = call i32 @EVP_DigestInit_ex(ptr noundef nonnull %6, ptr noundef %11, ptr noundef null) #7
  %.not = icmp eq i32 %12, 0
  br i1 %.not, label %26, label %13

13:                                               ; preds = %10
  %14 = getelementptr inbounds nuw i8, ptr %0, i64 80
  %15 = load ptr, ptr %14, align 8, !tbaa !46
  %16 = getelementptr inbounds nuw i8, ptr %15, i64 168
  %17 = load ptr, ptr %16, align 8, !tbaa !87
  %18 = getelementptr inbounds nuw i8, ptr %17, i64 8
  %19 = load ptr, ptr %18, align 8, !tbaa !35
  %20 = load i64, ptr %17, align 8, !tbaa !88
  %21 = call i32 @EVP_DigestUpdate(ptr noundef nonnull %6, ptr noundef %19, i64 noundef %20) #7
  %.not24 = icmp eq i32 %21, 0
  br i1 %.not24, label %26, label %22

22:                                               ; preds = %13
  %23 = call i32 @EVP_DigestFinal(ptr noundef nonnull %6, ptr noundef %1, ptr noundef nonnull %7) #7
  %.not25 = icmp eq i32 %23, 0
  br i1 %.not25, label %26, label %.thread

.thread:                                          ; preds = %22
  %24 = load i32, ptr %7, align 4, !tbaa !74
  %25 = zext i32 %24 to i64
  store i64 %25, ptr %2, align 8, !tbaa !79
  call void @llvm.lifetime.end.p0(i64 4, ptr nonnull %7) #7
  call void @llvm.lifetime.end.p0(i64 32, ptr nonnull %6) #7
  br label %61

26:                                               ; preds = %10, %13, %22
  call void @ERR_put_error(i32 noundef 16, i32 noundef 0, i32 noundef 6, ptr noundef nonnull @.str, i32 noundef 449) #7
  %27 = call i32 @EVP_MD_CTX_cleanup(ptr noundef nonnull %6) #7
  call void @llvm.lifetime.end.p0(i64 4, ptr nonnull %7) #7
  call void @llvm.lifetime.end.p0(i64 32, ptr nonnull %6) #7
  br label %61

28:                                               ; preds = %5
  switch i32 %4, label %60 [
    i32 6, label %29
    i32 408, label %49
  ]

29:                                               ; preds = %28
  %30 = getelementptr inbounds nuw i8, ptr %0, i64 80
  %31 = load ptr, ptr %30, align 8, !tbaa !46
  %32 = getelementptr inbounds nuw i8, ptr %31, i64 280
  %33 = load ptr, ptr %32, align 8, !tbaa !47
  %34 = getelementptr inbounds nuw i8, ptr %33, i64 16
  %35 = load ptr, ptr %34, align 8, !tbaa !89
  %36 = tail call i32 %35(ptr noundef %0, i32 noundef 4, ptr noundef %1) #7
  %37 = icmp eq i32 %36, 0
  br i1 %37, label %61, label %38

38:                                               ; preds = %29
  %39 = load ptr, ptr %30, align 8, !tbaa !46
  %40 = getelementptr inbounds nuw i8, ptr %39, i64 280
  %41 = load ptr, ptr %40, align 8, !tbaa !47
  %42 = getelementptr inbounds nuw i8, ptr %41, i64 16
  %43 = load ptr, ptr %42, align 8, !tbaa !89
  %44 = getelementptr inbounds nuw i8, ptr %1, i64 16
  %45 = tail call i32 %43(ptr noundef nonnull %0, i32 noundef 64, ptr noundef nonnull %44) #7
  %46 = icmp eq i32 %45, 0
  br i1 %46, label %61, label %47

47:                                               ; preds = %38
  store i64 36, ptr %2, align 8, !tbaa !79
  %48 = tail call ptr @EVP_md5_sha1() #7
  store ptr %48, ptr %3, align 8, !tbaa !86
  br label %61

49:                                               ; preds = %28
  %50 = getelementptr inbounds nuw i8, ptr %0, i64 80
  %51 = load ptr, ptr %50, align 8, !tbaa !46
  %52 = getelementptr inbounds nuw i8, ptr %51, i64 280
  %53 = load ptr, ptr %52, align 8, !tbaa !47
  %54 = getelementptr inbounds nuw i8, ptr %53, i64 16
  %55 = load ptr, ptr %54, align 8, !tbaa !89
  %56 = tail call i32 %55(ptr noundef %0, i32 noundef 64, ptr noundef %1) #7
  %57 = icmp eq i32 %56, 0
  br i1 %57, label %61, label %58

58:                                               ; preds = %49
  store i64 20, ptr %2, align 8, !tbaa !79
  %59 = tail call ptr @EVP_sha1() #7
  store ptr %59, ptr %3, align 8, !tbaa !86
  br label %61

60:                                               ; preds = %28
  tail call void @ERR_put_error(i32 noundef 16, i32 noundef 0, i32 noundef 68, ptr noundef nonnull @.str, i32 noundef 469) #7
  br label %61

61:                                               ; preds = %58, %47, %.thread, %26, %49, %29, %38, %60
  %.1 = phi i32 [ 0, %26 ], [ 0, %60 ], [ 0, %38 ], [ 0, %29 ], [ 0, %49 ], [ 1, %.thread ], [ 1, %47 ], [ 1, %58 ]
  ret i32 %.1
}